(dp0
S'abtj'
p1
(lp2
(S'avo'
p3
I30
tp4
a(S'egg'
p5
I150
tp6
a(S'bacon'
p7
I20
tp8
a(S'cheese'
p9
I30
tp10
asS'almond.pancake'
p11
(lp12
(S'egg'
p13
I100
tp14
a(S'almond'
p15
I400
tp16
a(S'coil'
p17
I18
tp18
a(S'water'
p19
I59
tp20
asS'fruit'
p21
(lp22
(S'strawb'
p23
I20
tp24
a(S'cant'
p25
I35
tp26
a(S'orange'
p27
I20
tp28
a(S'pineapple'
p29
I25
tp30
as.